; Function Attrs: nounwind uwtable
define dso_local void @nghttp2_buf_free(ptr noundef %0, ptr noundef %1) local_unnamed_addr #1 {
  %3 = icmp eq ptr %0, null
  br i1 %3, label %6, label %4

4:                                                ; preds = %2
  %5 = load ptr, ptr %0, align 8, !tbaa !10
  tail call void @nghttp2_mem_free(ptr noundef %1, ptr noundef %5) #10
  store ptr null, ptr %0, align 8, !tbaa !10
  br label %6

6:                                                ; preds = %2, %4
  ret void
}